target datalayout = "e-m:e-p270:32:32-p271:32:32-p272:64:64-i64:64-i128:128-f80:128-n8:16:32:64-S128"
target triple = "x86_64-pc-linux-gnu"

%struct.sct_st = type { i32, ptr, i64, ptr, i64, i64, ptr, i64, i8, i8, ptr, i64, i32, i32, i32 }

@.str = private unnamed_addr constant [30 x i8] c"../openssl/crypto/ct/ct_oct.c\00", align 1
@__func__.o2i_SCT_signature = private unnamed_addr constant [18 x i8] c"o2i_SCT_signature\00", align 1

; Function Attrs: nounwind uwtable
define i32 @o2i_SCT_signature(ptr noundef %0, ptr noundef %1, i64 noundef %2) #0 {
  %4 = alloca i32, align 4
  %5 = alloca ptr, align 8
  %6 = alloca ptr, align 8
  %7 = alloca i64, align 8
  %8 = alloca i64, align 8
  %9 = alloca i64, align 8
  %10 = alloca ptr, align 8
  %11 = alloca i32, align 4
  store ptr %0, ptr %5, align 8, !tbaa !3
  store ptr %1, ptr %6, align 8, !tbaa !8
  store i64 %2, ptr %7, align 8, !tbaa !10
  call void @llvm.lifetime.start.p0(i64 8, ptr %8) #5
  call void @llvm.lifetime.start.p0(i64 8, ptr %9) #5
  %12 = load i64, ptr %7, align 8, !tbaa !10
  store i64 %12, ptr %9, align 8, !tbaa !10
  call void @llvm.lifetime.start.p0(i64 8, ptr %10) #5
  %13 = load ptr, ptr %5, align 8, !tbaa !3
  %14 = getelementptr inbounds nuw %struct.sct_st, ptr %13, i32 0, i32 0
  %15 = load i32, ptr %14, align 8, !tbaa !12
  %16 = icmp ne i32 %15, 0
  br i1 %16, label %17, label %18

17:                                               ; preds = %3
  call void @ERR_new()
  call void @ERR_set_debug(ptr noundef @.str, i32 noundef 31, ptr noundef @__func__.o2i_SCT_signature)
  call void (i32, i32, ptr, ...) @ERR_set_error(i32 noundef 50, i32 noundef 103, ptr noundef null)
  store i32 -1, ptr %4, align 4
  store i32 1, ptr %11, align 4
  br label %84

18:                                               ; preds = %3
  %19 = load i64, ptr %7, align 8, !tbaa !10
  %20 = icmp ule i64 %19, 4
  br i1 %20, label %21, label %22

21:                                               ; preds = %18
  call void @ERR_new()
  call void @ERR_set_debug(ptr noundef @.str, i32 noundef 42, ptr noundef @__func__.o2i_SCT_signature)
  call void (i32, i32, ptr, ...) @ERR_set_error(i32 noundef 50, i32 noundef 107, ptr noundef null)
  store i32 -1, ptr %4, align 4
  store i32 1, ptr %11, align 4
  br label %84

22:                                               ; preds = %18
  %23 = load ptr, ptr %6, align 8, !tbaa !8
  %24 = load ptr, ptr %23, align 8, !tbaa !16
  store ptr %24, ptr %10, align 8, !tbaa !16
  %25 = load ptr, ptr %10, align 8, !tbaa !16
  %26 = getelementptr inbounds nuw i8, ptr %25, i32 1
  store ptr %26, ptr %10, align 8, !tbaa !16
  %27 = load i8, ptr %25, align 1, !tbaa !17
  %28 = load ptr, ptr %5, align 8, !tbaa !3
  %29 = getelementptr inbounds nuw %struct.sct_st, ptr %28, i32 0, i32 8
  store i8 %27, ptr %29, align 8, !tbaa !18
  %30 = load ptr, ptr %10, align 8, !tbaa !16
  %31 = getelementptr inbounds nuw i8, ptr %30, i32 1
  store ptr %31, ptr %10, align 8, !tbaa !16
  %32 = load i8, ptr %30, align 1, !tbaa !17
  %33 = load ptr, ptr %5, align 8, !tbaa !3
  %34 = getelementptr inbounds nuw %struct.sct_st, ptr %33, i32 0, i32 9
  store i8 %32, ptr %34, align 1, !tbaa !19
  %35 = load ptr, ptr %5, align 8, !tbaa !3
  %36 = call i32 @SCT_get_signature_nid(ptr noundef %35)
  %37 = icmp eq i32 %36, 0
  br i1 %37, label %38, label %39

38:                                               ; preds = %22
  call void @ERR_new()
  call void @ERR_set_debug(ptr noundef @.str, i32 noundef 51, ptr noundef @__func__.o2i_SCT_signature)
  call void (i32, i32, ptr, ...) @ERR_set_error(i32 noundef 50, i32 noundef 107, ptr noundef null)
  store i32 -1, ptr %4, align 4
  store i32 1, ptr %11, align 4
  br label %84

39:                                               ; preds = %22
  %40 = load ptr, ptr %10, align 8, !tbaa !16
  %41 = getelementptr inbounds i8, ptr %40, i64 0
  %42 = load i8, ptr %41, align 1, !tbaa !17
  %43 = zext i8 %42 to i32
  %44 = shl i32 %43, 8
  %45 = load ptr, ptr %10, align 8, !tbaa !16
  %46 = getelementptr inbounds i8, ptr %45, i64 1
  %47 = load i8, ptr %46, align 1, !tbaa !17
  %48 = zext i8 %47 to i32
  %49 = or i32 %44, %48
  %50 = zext i32 %49 to i64
  store i64 %50, ptr %8, align 8, !tbaa !10
  %51 = load ptr, ptr %10, align 8, !tbaa !16
  %52 = getelementptr inbounds i8, ptr %51, i64 2
  store ptr %52, ptr %10, align 8, !tbaa !16
  %53 = load ptr, ptr %10, align 8, !tbaa !16
  %54 = load ptr, ptr %6, align 8, !tbaa !8
  %55 = load ptr, ptr %54, align 8, !tbaa !16
  %56 = ptrtoint ptr %53 to i64
  %57 = ptrtoint ptr %55 to i64
  %58 = sub i64 %56, %57
  %59 = load i64, ptr %9, align 8, !tbaa !10
  %60 = sub i64 %59, %58
  store i64 %60, ptr %9, align 8, !tbaa !10
  %61 = load i64, ptr %8, align 8, !tbaa !10
  %62 = load i64, ptr %9, align 8, !tbaa !10
  %63 = icmp ugt i64 %61, %62
  br i1 %63, label %64, label %65

64:                                               ; preds = %39
  call void @ERR_new()
  call void @ERR_set_debug(ptr noundef @.str, i32 noundef 58, ptr noundef @__func__.o2i_SCT_signature)
  call void (i32, i32, ptr, ...) @ERR_set_error(i32 noundef 50, i32 noundef 107, ptr noundef null)
  store i32 -1, ptr %4, align 4
  store i32 1, ptr %11, align 4
  br label %84

65:                                               ; preds = %39
  %66 = load ptr, ptr %5, align 8, !tbaa !3
  %67 = load ptr, ptr %10, align 8, !tbaa !16
  %68 = load i64, ptr %8, align 8, !tbaa !10
  %69 = call i32 @SCT_set1_signature(ptr noundef %66, ptr noundef %67, i64 noundef %68)
  %70 = icmp ne i32 %69, 1
  br i1 %70, label %71, label %72

71:                                               ; preds = %65
  store i32 -1, ptr %4, align 4
  store i32 1, ptr %11, align 4
  br label %84

72:                                               ; preds = %65
  %73 = load i64, ptr %8, align 8, !tbaa !10
  %74 = load i64, ptr %9, align 8, !tbaa !10
  %75 = sub i64 %74, %73
  store i64 %75, ptr %9, align 8, !tbaa !10
  %76 = load ptr, ptr %10, align 8, !tbaa !16
  %77 = load i64, ptr %8, align 8, !tbaa !10
  %78 = getelementptr inbounds nuw i8, ptr %76, i64 %77
  %79 = load ptr, ptr %6, align 8, !tbaa !8
  store ptr %78, ptr %79, align 8, !tbaa !16
  %80 = load i64, ptr %7, align 8, !tbaa !10
  %81 = load i64, ptr %9, align 8, !tbaa !10
  %82 = sub i64 %80, %81
  %83 = trunc i64 %82 to i32
  store i32 %83, ptr %4, align 4
  store i32 1, ptr %11, align 4
  br label %84

84:                                               ; preds = %72, %71, %64, %38, %21, %17
  call void @llvm.lifetime.end.p0(i64 8, ptr %10) #5
  call void @llvm.lifetime.end.p0(i64 8, ptr %9) #5
  call void @llvm.lifetime.end.p0(i64 8, ptr %8) #5
  %85 = load i32, ptr %4, align 4
  ret i32 %85
}