; Function Attrs: nounwind uwtable
define i32 @o2i_SCT_signature(ptr noundef %0, ptr noundef captures(none) %1, i64 noundef %2) local_unnamed_addr #0 {
  %4 = load i32, ptr %0, align 8, !tbaa !3
  %.not = icmp eq i32 %4, 0
  br i1 %.not, label %6, label %5

5:                                                ; preds = %3
  tail call void @ERR_new() #4
  tail call void @ERR_set_debug(ptr noundef nonnull @.str, i32 noundef 31, ptr noundef nonnull @__func__.o2i_SCT_signature) #4
  tail call void (i32, i32, ptr, ...) @ERR_set_error(i32 noundef 50, i32 noundef 103, ptr noundef null) #4
  br label %41

6:                                                ; preds = %3
  %7 = icmp ult i64 %2, 5
  br i1 %7, label %8, label %9

8:                                                ; preds = %6
  tail call void @ERR_new() #4
  tail call void @ERR_set_debug(ptr noundef nonnull @.str, i32 noundef 42, ptr noundef nonnull @__func__.o2i_SCT_signature) #4
  tail call void (i32, i32, ptr, ...) @ERR_set_error(i32 noundef 50, i32 noundef 107, ptr noundef null) #4
  br label %41

9:                                                ; preds = %6
  %10 = load ptr, ptr %1, align 8, !tbaa !11
  %11 = getelementptr inbounds nuw i8, ptr %10, i64 1
  %12 = load i8, ptr %10, align 1, !tbaa !12
  %13 = getelementptr inbounds nuw i8, ptr %0, i64 64
  store i8 %12, ptr %13, align 8, !tbaa !13
  %14 = load i8, ptr %11, align 1, !tbaa !12
  %15 = getelementptr inbounds nuw i8, ptr %0, i64 65
  store i8 %14, ptr %15, align 1, !tbaa !14
  %16 = tail call i32 @SCT_get_signature_nid(ptr noundef nonnull %0) #4
  %17 = icmp eq i32 %16, 0
  br i1 %17, label %18, label %19

18:                                               ; preds = %9
  tail call void @ERR_new() #4
  tail call void @ERR_set_debug(ptr noundef nonnull @.str, i32 noundef 51, ptr noundef nonnull @__func__.o2i_SCT_signature) #4
  tail call void (i32, i32, ptr, ...) @ERR_set_error(i32 noundef 50, i32 noundef 107, ptr noundef null) #4
  br label %41

19:                                               ; preds = %9
  %20 = getelementptr inbounds nuw i8, ptr %10, i64 2
  %21 = load i8, ptr %20, align 1, !tbaa !12
  %22 = zext i8 %21 to i64
  %23 = shl nuw nsw i64 %22, 8
  %24 = getelementptr inbounds nuw i8, ptr %10, i64 3
  %25 = load i8, ptr %24, align 1, !tbaa !12
  %26 = zext i8 %25 to i64
  %27 = or disjoint i64 %23, %26
  %28 = getelementptr inbounds nuw i8, ptr %10, i64 4
  %29 = load ptr, ptr %1, align 8, !tbaa !11
  %30 = ptrtoint ptr %28 to i64
  %31 = ptrtoint ptr %29 to i64
  %.neg = sub i64 %31, %30
  %32 = add i64 %.neg, %2
  %33 = icmp ugt i64 %27, %32
  br i1 %33, label %34, label %35

34:                                               ; preds = %19
  tail call void @ERR_new() #4
  tail call void @ERR_set_debug(ptr noundef nonnull @.str, i32 noundef 58, ptr noundef nonnull @__func__.o2i_SCT_signature) #4
  tail call void (i32, i32, ptr, ...) @ERR_set_error(i32 noundef 50, i32 noundef 107, ptr noundef null) #4
  br label %41

35:                                               ; preds = %19
  %36 = tail call i32 @SCT_set1_signature(ptr noundef nonnull %0, ptr noundef nonnull %28, i64 noundef %27) #4
  %.not30 = icmp eq i32 %36, 1
  br i1 %.not30, label %37, label %41

37:                                               ; preds = %35
  %38 = getelementptr inbounds nuw i8, ptr %28, i64 %27
  store ptr %38, ptr %1, align 8, !tbaa !11
  %39 = sub i64 %27, %.neg
  %40 = trunc i64 %39 to i32
  br label %41

41:                                               ; preds = %35, %37, %34, %18, %8, %5
  %.0 = phi i32 [ -1, %5 ], [ -1, %8 ], [ -1, %18 ], [ -1, %34 ], [ %40, %37 ], [ -1, %35 ]
  ret i32 %.0
}